; Function Attrs: mustprogress uwtable
define void @lean_io_result_show_error(ptr noundef readonly captures(none) %0) local_unnamed_addr #0 {
  %2 = getelementptr i8, ptr %0, i64 8
  %.val.i = load ptr, ptr %2, align 8, !tbaa !3
  %.val.i.i = load i32, ptr %.val.i, align 4, !tbaa !7
  %3 = icmp sgt i32 %.val.i.i, 0
  br i1 %3, label %4, label %6, !prof !10

4:                                                ; preds = %1
  %5 = add nuw nsw i32 %.val.i.i, 1
  store i32 %5, ptr %.val.i, align 4, !tbaa !7
  br label %_ZN4lean7inc_refEP11lean_object.exit

6:                                                ; preds = %1
  %.not.i.i = icmp eq i32 %.val.i.i, 0
  br i1 %.not.i.i, label %_ZN4lean7inc_refEP11lean_object.exit, label %7

7:                                                ; preds = %6
  tail call void @lean_inc_ref_cold(ptr noundef nonnull %.val.i)
  br label %_ZN4lean7inc_refEP11lean_object.exit

_ZN4lean7inc_refEP11lean_object.exit:             ; preds = %4, %6, %7
  %8 = tail call ptr @lean_io_error_to_string(ptr noundef nonnull %.val.i)
  %9 = tail call noundef nonnull align 8 dereferenceable(8) ptr @_ZSt16__ostream_insertIcSt11char_traitsIcEERSt13basic_ostreamIT_T0_ES6_PKS3_l(ptr noundef nonnull align 8 dereferenceable(8) @_ZSt4cerr, ptr noundef nonnull @.str, i64 noundef 20)
  %10 = getelementptr inbounds nuw i8, ptr %8, i64 32
  %11 = tail call noundef i64 @strlen(ptr noundef nonnull dereferenceable(1) %10) #27
  %12 = tail call noundef nonnull align 8 dereferenceable(8) ptr @_ZSt16__ostream_insertIcSt11char_traitsIcEERSt13basic_ostreamIT_T0_ES6_PKS3_l(ptr noundef nonnull align 8 dereferenceable(8) @_ZSt4cerr, ptr noundef nonnull %10, i64 noundef %11)
  %13 = load ptr, ptr @_ZSt4cerr, align 8, !tbaa !11
  %14 = getelementptr i8, ptr %13, i64 -24
  %15 = load i64, ptr %14, align 8
  %16 = getelementptr inbounds i8, ptr @_ZSt4cerr, i64 %15
  %17 = getelementptr inbounds nuw i8, ptr %16, i64 240
  %18 = load ptr, ptr %17, align 8, !tbaa !13
  %.not.i.i.i = icmp eq ptr %18, null
  br i1 %.not.i.i.i, label %19, label %_ZSt13__check_facetISt5ctypeIcEERKT_PS3_.exit.i.i

19:                                               ; preds = %_ZN4lean7inc_refEP11lean_object.exit
  tail call void @_ZSt16__throw_bad_castv() #28
  unreachable

_ZSt13__check_facetISt5ctypeIcEERKT_PS3_.exit.i.i: ; preds = %_ZN4lean7inc_refEP11lean_object.exit
  %20 = getelementptr inbounds nuw i8, ptr %18, i64 56
  %21 = load i8, ptr %20, align 8, !tbaa !30
  %.not.i1.i.i = icmp eq i8 %21, 0
  br i1 %.not.i1.i.i, label %25, label %22

22:                                               ; preds = %_ZSt13__check_facetISt5ctypeIcEERKT_PS3_.exit.i.i
  %23 = getelementptr inbounds nuw i8, ptr %18, i64 67
  %24 = load i8, ptr %23, align 1, !tbaa !36
  br label %_ZSt4endlIcSt11char_traitsIcEERSt13basic_ostreamIT_T0_ES6_.exit

25:                                               ; preds = %_ZSt13__check_facetISt5ctypeIcEERKT_PS3_.exit.i.i
  tail call void @_ZNKSt5ctypeIcE13_M_widen_initEv(ptr noundef nonnull align 8 dereferenceable(570) %18)
  %26 = load ptr, ptr %18, align 8, !tbaa !11
  %27 = getelementptr inbounds nuw i8, ptr %26, i64 48
  %28 = load ptr, ptr %27, align 8
  %29 = tail call noundef signext i8 %28(ptr noundef nonnull align 8 dereferenceable(570) %18, i8 noundef signext 10)
  br label %_ZSt4endlIcSt11char_traitsIcEERSt13basic_ostreamIT_T0_ES6_.exit

_ZSt4endlIcSt11char_traitsIcEERSt13basic_ostreamIT_T0_ES6_.exit: ; preds = %22, %25
  %.0.i.i.i = phi i8 [ %24, %22 ], [ %29, %25 ]
  %30 = tail call noundef nonnull align 8 dereferenceable(8) ptr @_ZNSo3putEc(ptr noundef nonnull align 8 dereferenceable(8) @_ZSt4cerr, i8 noundef signext %.0.i.i.i)
  %31 = tail call noundef nonnull align 8 dereferenceable(8) ptr @_ZNSo5flushEv(ptr noundef nonnull align 8 dereferenceable(8) %30)
  %32 = load i32, ptr %8, align 4, !tbaa !7
  %33 = icmp sgt i32 %32, 1
  br i1 %33, label %34, label %36, !prof !10

34:                                               ; preds = %_ZSt4endlIcSt11char_traitsIcEERSt13basic_ostreamIT_T0_ES6_.exit
  %35 = add nsw i32 %32, -1
  store i32 %35, ptr %8, align 4, !tbaa !7
  br label %_ZN4lean7dec_refEP11lean_object.exit

36:                                               ; preds = %_ZSt4endlIcSt11char_traitsIcEERSt13basic_ostreamIT_T0_ES6_.exit
  %.not.i.i5 = icmp eq i32 %32, 0
  br i1 %.not.i.i5, label %_ZN4lean7dec_refEP11lean_object.exit, label %37

37:                                               ; preds = %36
  tail call void @lean_dec_ref_cold(ptr noundef nonnull %8)
  br label %_ZN4lean7dec_refEP11lean_object.exit

_ZN4lean7dec_refEP11lean_object.exit:             ; preds = %34, %36, %37
  ret void
}